target datalayout = "e-m:e-p270:32:32-p271:32:32-p272:64:64-i64:64-i128:128-f80:128-n8:16:32:64-S128"
target triple = "x86_64-pc-linux-gnu"

@.str.35 = private unnamed_addr constant [9 x i8] c"WORKTREE\00", align 1
@.str.36 = private unnamed_addr constant [90 x i8] c"%s:.gitmodules, multiple configurations found for 'submodule.%s.%s'. Skipping second one!\00", align 1

; Function Attrs: nounwind uwtable
define internal void @warn_multiple_config(ptr noundef %0, ptr noundef %1, ptr noundef %2) #0 {
  %4 = alloca ptr, align 8
  %5 = alloca ptr, align 8
  %6 = alloca ptr, align 8
  %7 = alloca ptr, align 8
  store ptr %0, ptr %4, align 8, !tbaa !82
  store ptr %1, ptr %5, align 8, !tbaa !13
  store ptr %2, ptr %6, align 8, !tbaa !13
  call void @llvm.lifetime.start.p0(i64 8, ptr %7) #9
  store ptr @.str.35, ptr %7, align 8, !tbaa !13
  %8 = load ptr, ptr %4, align 8, !tbaa !82
  %9 = icmp ne ptr %8, null
  br i1 %9, label %10, label %13

10:                                               ; preds = %3
  %11 = load ptr, ptr %4, align 8, !tbaa !82
  %12 = call ptr @oid_to_hex(ptr noundef %11)
  store ptr %12, ptr %7, align 8, !tbaa !13
  br label %13

13:                                               ; preds = %10, %3
  %14 = load ptr, ptr %7, align 8, !tbaa !13
  %15 = load ptr, ptr %5, align 8, !tbaa !13
  %16 = load ptr, ptr %6, align 8, !tbaa !13
  call void (ptr, ...) @warning(ptr noundef @.str.36, ptr noundef %14, ptr noundef %15, ptr noundef %16)
  call void @llvm.lifetime.end.p0(i64 8, ptr %7) #9
  ret void
}