; Function Attrs: nounwind uwtable
define internal fastcc void @warn_multiple_config(ptr noundef %0, ptr noundef %1, ptr noundef %2) unnamed_addr #0 {
  %.not = icmp eq ptr %0, null
  br i1 %.not, label %6, label %4

4:                                                ; preds = %3
  %5 = tail call ptr @oid_to_hex(ptr noundef nonnull %0) #15
  br label %6

6:                                                ; preds = %4, %3
  %.0 = phi ptr [ %5, %4 ], [ @.str.35, %3 ]
  tail call void (ptr, ...) @warning(ptr noundef nonnull @.str.36, ptr noundef %.0, ptr noundef %1, ptr noundef %2) #15
  ret void
}